; Function Attrs: mustprogress uwtable
define noundef zeroext i1 @_ZN3nix8fetchers11getBoolAttrERKSt3mapINSt7__cxx1112basic_stringIcSt11char_traitsIcESaIcEEESt7variantIJS7_mNS_8ExplicitIbEEEESt4lessIS7_ESaISt4pairIKS7_SB_EEERSF_(ptr noundef nonnull align 8 dereferenceable(48) %0, ptr noundef nonnull align 8 dereferenceable(32) %1) local_unnamed_addr #4 personality ptr @__gxx_personality_v0 {
  %3 = alloca %"class.std::__cxx11::basic_string", align 8
  %4 = alloca %"class.std::allocator.0", align 1
  %5 = tail call i16 @_ZN3nix8fetchers16maybeGetBoolAttrERKSt3mapINSt7__cxx1112basic_stringIcSt11char_traitsIcESaIcEEESt7variantIJS7_mNS_8ExplicitIbEEEESt4lessIS7_ESaISt4pairIKS7_SB_EEERSF_(ptr noundef nonnull align 8 dereferenceable(48) %0, ptr noundef nonnull align 8 dereferenceable(32) %1)
  %6 = and i16 %5, 256
  %.not = icmp eq i16 %6, 0
  br i1 %.not, label %7, label %15

7:                                                ; preds = %2
  %8 = tail call ptr @__cxa_allocate_exception(i64 376) #24
  call void @_ZNSaIcEC1Ev(ptr noundef nonnull align 1 dereferenceable(1) %4) #24
  invoke void @_ZNSt7__cxx1112basic_stringIcSt11char_traitsIcESaIcEEC2IS3_EEPKcRKS3_(ptr noundef nonnull align 8 dereferenceable(32) %3, ptr noundef nonnull @.str.5, ptr noundef nonnull align 1 dereferenceable(1) %4)
          to label %9 unwind label %.thread

9:                                                ; preds = %7
  invoke void @_ZN3nix5ErrorCI2NS_9BaseErrorEIJNSt7__cxx1112basic_stringIcSt11char_traitsIcESaIcEEEEEERKS6_DpRKT_(ptr noundef nonnull align 8 dereferenceable(376) %8, ptr noundef nonnull align 8 dereferenceable(32) %3, ptr noundef nonnull align 8 dereferenceable(32) %1)
          to label %10 unwind label %12

10:                                               ; preds = %9
  invoke void @__cxa_throw(ptr nonnull %8, ptr nonnull @_ZTIN3nix5ErrorE, ptr nonnull @_ZN3nix5ErrorD2Ev) #26
          to label %19 unwind label %12

.thread:                                          ; preds = %7
  %11 = landingpad { ptr, i32 }
          cleanup
  call void @_ZNSaIcED1Ev(ptr noundef nonnull align 1 dereferenceable(1) %4) #24
  br label %14

12:                                               ; preds = %9, %10
  %.0 = phi i1 [ false, %10 ], [ true, %9 ]
  %13 = landingpad { ptr, i32 }
          cleanup
  call void @_ZNSt7__cxx1112basic_stringIcSt11char_traitsIcESaIcEED2Ev(ptr noundef nonnull align 8 dereferenceable(32) %3) #24
  call void @_ZNSaIcED1Ev(ptr noundef nonnull align 1 dereferenceable(1) %4) #24
  br i1 %.0, label %14, label %18

14:                                               ; preds = %.thread, %12
  %.pn11 = phi { ptr, i32 } [ %11, %.thread ], [ %13, %12 ]
  call void @__cxa_free_exception(ptr %8) #24
  br label %18

15:                                               ; preds = %2
  %16 = and i16 %5, 1
  %17 = icmp ne i16 %16, 0
  ret i1 %17

18:                                               ; preds = %12, %14
  %.pn10 = phi { ptr, i32 } [ %13, %12 ], [ %.pn11, %14 ]
  resume { ptr, i32 } %.pn10

19:                                               ; preds = %10
  unreachable
}